; Function Attrs: mustprogress uwtable
define hidden void @_ZN6google8protobuf8compiler6csharp18FieldGeneratorBase6numberB5cxx11Ev(ptr noalias sret(%"class.std::__cxx11::basic_string") align 8 %agg.result, ptr nocapture noundef nonnull readonly align 8 dereferenceable(64) %this) local_unnamed_addr #3 align 2 personality ptr @__gxx_personality_v0 {
entry:
  %ref.tmp.i = alloca %"class.std::allocator.9", align 1
  %ref.tmp = alloca %"class.absl::lts_20230802::AlphaNum", align 8
  %descriptor_ = getelementptr inbounds i8, ptr %this, i64 16
  %0 = load ptr, ptr %descriptor_, align 8
  %number_.i = getelementptr inbounds i8, ptr %0, i64 4
  %1 = load i32, ptr %number_.i, align 4
  %digits_.i = getelementptr inbounds i8, ptr %ref.tmp, i64 16
  %call.i = call noundef ptr @_ZN4absl12lts_2023080216numbers_internal15FastIntToBufferEiPc(i32 noundef %1, ptr noundef nonnull %digits_.i)
  %sub.ptr.lhs.cast.i = ptrtoint ptr %call.i to i64
  %sub.ptr.rhs.cast.i = ptrtoint ptr %digits_.i to i64
  %sub.ptr.sub.i = sub i64 %sub.ptr.lhs.cast.i, %sub.ptr.rhs.cast.i
  store i64 %sub.ptr.sub.i, ptr %ref.tmp, align 8
  %_M_str.i.i = getelementptr inbounds i8, ptr %ref.tmp, i64 8
  store ptr %digits_.i, ptr %_M_str.i.i, align 8
  call void @llvm.lifetime.start.p0(i64 1, ptr nonnull %ref.tmp.i)
  call void @_ZNSaIcEC1Ev(ptr noundef nonnull align 1 dereferenceable(1) %ref.tmp.i) #26, !noalias !306
  invoke void @_ZNSt7__cxx1112basic_stringIcSt11char_traitsIcESaIcEEC1EPKcmRKS3_(ptr noundef nonnull align 8 dereferenceable(32) %agg.result, ptr noundef nonnull %digits_.i, i64 noundef %sub.ptr.sub.i, ptr noundef nonnull align 1 dereferenceable(1) %ref.tmp.i)
          to label %_ZN4absl12lts_202308026StrCatB5cxx11ERKNS0_8AlphaNumE.exit unwind label %lpad.i

lpad.i:                                           ; preds = %entry
  %2 = landingpad { ptr, i32 }
          cleanup
  call void @_ZNSaIcED1Ev(ptr noundef nonnull align 1 dereferenceable(1) %ref.tmp.i) #26
  resume { ptr, i32 } %2

_ZN4absl12lts_202308026StrCatB5cxx11ERKNS0_8AlphaNumE.exit: ; preds = %entry
  call void @_ZNSaIcED1Ev(ptr noundef nonnull align 1 dereferenceable(1) %ref.tmp.i) #26
  call void @llvm.lifetime.end.p0(i64 1, ptr nonnull %ref.tmp.i)
  ret void
}